; Function Attrs: inlinehint mustprogress nounwind uwtable
define internal fastcc void @_ZNSt4pairIPN5Yosys5RTLIL6ModuleESt6vectorIN12_GLOBAL__N_112ReplacedPortESaIS6_EEED2Ev(ptr noundef nonnull readonly align 8 captures(none) dereferenceable(32) %0) unnamed_addr #4 align 2 personality ptr @__gxx_personality_v0 {
  %2 = getelementptr inbounds nuw i8, ptr %0, i64 8
  %3 = load ptr, ptr %2, align 8, !tbaa !323
  %4 = getelementptr inbounds nuw i8, ptr %0, i64 16
  %5 = load ptr, ptr %4, align 8, !tbaa !326
  %.not4.i.i.i.i = icmp eq ptr %3, %5
  br i1 %.not4.i.i.i.i, label %_ZSt8_DestroyIPN12_GLOBAL__N_112ReplacedPortES1_EvT_S3_RSaIT0_E.exit.i, label %.lr.ph.i.i.i.i

.lr.ph.i.i.i.i:                                   ; preds = %1, %_ZSt8_DestroyIN12_GLOBAL__N_112ReplacedPortEEvPT_.exit.i.i.i.i
  %.05.i.i.i.i = phi ptr [ %20, %_ZSt8_DestroyIN12_GLOBAL__N_112ReplacedPortEEvPT_.exit.i.i.i.i ], [ %3, %1 ]
  %.0.val.i.i.i.i = load i32, ptr %.05.i.i.i.i, align 4, !tbaa !174
  %6 = load i8, ptr @_ZN5Yosys5RTLIL8IdString17destruct_guard_okE, align 1, !tbaa !239, !range !250, !noundef !251
  %7 = trunc nuw i8 %6 to i1
  %8 = icmp ne i32 %.0.val.i.i.i.i, 0
  %or.cond.i.i.i.i.i.i.i.i = and i1 %8, %7
  br i1 %or.cond.i.i.i.i.i.i.i.i, label %9, label %_ZSt8_DestroyIN12_GLOBAL__N_112ReplacedPortEEvPT_.exit.i.i.i.i

9:                                                ; preds = %.lr.ph.i.i.i.i
  %10 = sext i32 %.0.val.i.i.i.i to i64
  %11 = load ptr, ptr @_ZN5Yosys5RTLIL8IdString24global_refcount_storage_E, align 8, !tbaa !219
  %12 = getelementptr inbounds nuw i32, ptr %11, i64 %10
  %13 = load i32, ptr %12, align 4, !tbaa !169
  %14 = add nsw i32 %13, -1
  store i32 %14, ptr %12, align 4, !tbaa !169
  %15 = icmp sgt i32 %13, 1
  br i1 %15, label %_ZSt8_DestroyIN12_GLOBAL__N_112ReplacedPortEEvPT_.exit.i.i.i.i, label %16

16:                                               ; preds = %9
  invoke void @_ZN5Yosys5RTLIL8IdString14free_referenceEi(i32 noundef %.0.val.i.i.i.i)
          to label %_ZSt8_DestroyIN12_GLOBAL__N_112ReplacedPortEEvPT_.exit.i.i.i.i unwind label %17

17:                                               ; preds = %16
  %18 = landingpad { ptr, i32 }
          catch ptr null
  %19 = extractvalue { ptr, i32 } %18, 0
  tail call void @__clang_call_terminate(ptr %19) #29
  unreachable

_ZSt8_DestroyIN12_GLOBAL__N_112ReplacedPortEEvPT_.exit.i.i.i.i: ; preds = %16, %9, %.lr.ph.i.i.i.i
  %20 = getelementptr inbounds nuw i8, ptr %.05.i.i.i.i, i64 12
  %.not.i.i.i.i = icmp eq ptr %20, %5
  br i1 %.not.i.i.i.i, label %_ZSt8_DestroyIPN12_GLOBAL__N_112ReplacedPortES1_EvT_S3_RSaIT0_E.exitthread-pre-split.i, label %.lr.ph.i.i.i.i, !llvm.loop !327

_ZSt8_DestroyIPN12_GLOBAL__N_112ReplacedPortES1_EvT_S3_RSaIT0_E.exitthread-pre-split.i: ; preds = %_ZSt8_DestroyIN12_GLOBAL__N_112ReplacedPortEEvPT_.exit.i.i.i.i
  %.val.pr.i = load ptr, ptr %2, align 8, !tbaa !323
  br label %_ZSt8_DestroyIPN12_GLOBAL__N_112ReplacedPortES1_EvT_S3_RSaIT0_E.exit.i

_ZSt8_DestroyIPN12_GLOBAL__N_112ReplacedPortES1_EvT_S3_RSaIT0_E.exit.i: ; preds = %_ZSt8_DestroyIPN12_GLOBAL__N_112ReplacedPortES1_EvT_S3_RSaIT0_E.exitthread-pre-split.i, %1
  %.val.i = phi ptr [ %.val.pr.i, %_ZSt8_DestroyIPN12_GLOBAL__N_112ReplacedPortES1_EvT_S3_RSaIT0_E.exitthread-pre-split.i ], [ %3, %1 ]
  %.not.i.i.i = icmp eq ptr %.val.i, null
  br i1 %.not.i.i.i, label %_ZNSt6vectorIN12_GLOBAL__N_112ReplacedPortESaIS1_EED2Ev.exit, label %21

21:                                               ; preds = %_ZSt8_DestroyIPN12_GLOBAL__N_112ReplacedPortES1_EvT_S3_RSaIT0_E.exit.i
  %22 = getelementptr inbounds nuw i8, ptr %0, i64 24
  %.val1.i = load ptr, ptr %22, align 8, !tbaa !328
  %23 = ptrtoint ptr %.val1.i to i64
  %24 = ptrtoint ptr %.val.i to i64
  %25 = sub i64 %23, %24
  tail call void @_ZdlPvm(ptr noundef nonnull %.val.i, i64 noundef %25) #26
  br label %_ZNSt6vectorIN12_GLOBAL__N_112ReplacedPortESaIS1_EED2Ev.exit

_ZNSt6vectorIN12_GLOBAL__N_112ReplacedPortESaIS1_EED2Ev.exit: ; preds = %_ZSt8_DestroyIPN12_GLOBAL__N_112ReplacedPortES1_EvT_S3_RSaIT0_E.exit.i, %21
  ret void
}